; Function Attrs: mustprogress nounwind uwtable
define dso_local ptr @_ZN4llvm9SourceMgr23FindLocForLineAndColumnEjjj(ptr noundef nonnull readonly align 8 captures(none) dereferenceable(64) %0, i32 noundef %1, i32 noundef %2, i32 noundef %3) local_unnamed_addr #0 align 2 {
  %5 = alloca %"class.llvm::StringRef", align 8
  %6 = add i32 %1, -1
  %7 = zext i32 %6 to i64
  %8 = load ptr, ptr %0, align 8
  %9 = getelementptr inbounds nuw %"struct.llvm::SourceMgr::SrcBuffer", ptr %8, i64 %7
  %10 = tail call noundef ptr @_ZNK4llvm9SourceMgr9SrcBuffer23getPointerForLineNumberEj(ptr noundef nonnull align 8 dereferenceable(24) %9, i32 noundef %2)
  %.not = icmp eq ptr %10, null
  br i1 %.not, label %22, label %11

11:                                               ; preds = %4
  %.not20 = icmp ult i32 %3, 2
  br i1 %.not20, label %22, label %12

12:                                               ; preds = %11
  %spec.select = add i32 %3, -1
  %13 = zext i32 %spec.select to i64
  %14 = getelementptr inbounds nuw i8, ptr %10, i64 %13
  %15 = load ptr, ptr %9, align 8
  %16 = getelementptr inbounds nuw i8, ptr %15, i64 16
  %17 = load ptr, ptr %16, align 8
  %18 = icmp ugt ptr %14, %17
  br i1 %18, label %22, label %19

19:                                               ; preds = %12
  store ptr %10, ptr %5, align 8
  %20 = getelementptr inbounds nuw i8, ptr %5, i64 8
  store i64 %13, ptr %20, align 8
  %21 = call noundef i64 @_ZNK4llvm9StringRef13find_first_ofES0_m(ptr noundef nonnull align 8 dereferenceable(16) %5, ptr nonnull @.str.1, i64 2, i64 noundef 0) #17
  %.not21 = icmp eq i64 %21, -1
  %spec.select23 = select i1 %.not21, ptr %14, ptr null
  br label %22

22:                                               ; preds = %19, %11, %12, %4
  %.sroa.022.0 = phi ptr [ null, %4 ], [ null, %12 ], [ %10, %11 ], [ %spec.select23, %19 ]
  ret ptr %.sroa.022.0
}